target datalayout = "e-m:e-p270:32:32-p271:32:32-p272:64:64-i64:64-i128:128-f80:128-n8:16:32:64-S128"
target triple = "x86_64-pc-linux-gnu"

%"union.pxrInternal_v0_24__pxrReserved__::pxr_half::half::uif" = type { i32 }
%"class.pxrInternal_v0_24__pxrReserved__::GfDualQuath" = type { %"class.pxrInternal_v0_24__pxrReserved__::GfQuath", %"class.pxrInternal_v0_24__pxrReserved__::GfQuath" }
%"class.pxrInternal_v0_24__pxrReserved__::GfQuath" = type { %"class.pxrInternal_v0_24__pxrReserved__::GfVec3h", %"class.pxrInternal_v0_24__pxrReserved__::pxr_half::half" }
%"class.pxrInternal_v0_24__pxrReserved__::GfVec3h" = type { [3 x %"class.pxrInternal_v0_24__pxrReserved__::pxr_half::half"] }
%"class.pxrInternal_v0_24__pxrReserved__::pxr_half::half" = type { i16 }

@_ZN32pxrInternal_v0_24__pxrReserved__8pxr_half4half8_toFloatE = external global [65536 x %"union.pxrInternal_v0_24__pxrReserved__::pxr_half::half::uif"], align 16
@_ZN32pxrInternal_v0_24__pxrReserved__8pxr_half4half5_eLutE = external constant [512 x i16], align 16

; Function Attrs: mustprogress uwtable
define linkonce_odr void @_ZN32pxrInternal_v0_24__pxrReserved__8pxr_half4halfC2Ef(ptr noundef nonnull align 2 dereferenceable(2) %0, float noundef %1) unnamed_addr #0 comdat align 2 {
  %3 = alloca ptr, align 8
  %4 = alloca float, align 4
  %5 = alloca %"union.pxrInternal_v0_24__pxrReserved__::pxr_half::half::uif", align 4
  %6 = alloca i32, align 4
  %7 = alloca i32, align 4
  store ptr %0, ptr %3, align 8
  store float %1, ptr %4, align 4
  %8 = load ptr, ptr %3, align 8
  %9 = load float, ptr %4, align 4
  store float %9, ptr %5, align 4
  %10 = load float, ptr %4, align 4
  %11 = fcmp oeq float %10, 0.000000e+00
  br i1 %11, label %12, label %17

12:                                               ; preds = %2
  %13 = load i32, ptr %5, align 4
  %14 = lshr i32 %13, 16
  %15 = trunc i32 %14 to i16
  %16 = getelementptr inbounds nuw %"class.pxrInternal_v0_24__pxrReserved__::pxr_half::half", ptr %8, i32 0, i32 0
  store i16 %15, ptr %16, align 2
  br label %47

17:                                               ; preds = %2
  %18 = load i32, ptr %5, align 4
  %19 = lshr i32 %18, 23
  %20 = and i32 %19, 511
  store i32 %20, ptr %6, align 4
  %21 = load i32, ptr %6, align 4
  %22 = sext i32 %21 to i64
  %23 = getelementptr inbounds [512 x i16], ptr @_ZN32pxrInternal_v0_24__pxrReserved__8pxr_half4half5_eLutE, i64 0, i64 %22
  %24 = load i16, ptr %23, align 2
  %25 = zext i16 %24 to i32
  store i32 %25, ptr %6, align 4
  %26 = load i32, ptr %6, align 4
  %27 = icmp ne i32 %26, 0
  br i1 %27, label %28, label %42

28:                                               ; preds = %17
  %29 = load i32, ptr %5, align 4
  %30 = and i32 %29, 8388607
  store i32 %30, ptr %7, align 4
  %31 = load i32, ptr %6, align 4
  %32 = load i32, ptr %7, align 4
  %33 = add nsw i32 %32, 4095
  %34 = load i32, ptr %7, align 4
  %35 = ashr i32 %34, 13
  %36 = and i32 %35, 1
  %37 = add nsw i32 %33, %36
  %38 = ashr i32 %37, 13
  %39 = add nsw i32 %31, %38
  %40 = trunc i32 %39 to i16
  %41 = getelementptr inbounds nuw %"class.pxrInternal_v0_24__pxrReserved__::pxr_half::half", ptr %8, i32 0, i32 0
  store i16 %40, ptr %41, align 2
  br label %46

42:                                               ; preds = %17
  %43 = load i32, ptr %5, align 4
  %44 = call noundef signext i16 @_ZN32pxrInternal_v0_24__pxrReserved__8pxr_half4half7convertEi(i32 noundef %43)
  %45 = getelementptr inbounds nuw %"class.pxrInternal_v0_24__pxrReserved__::pxr_half::half", ptr %8, i32 0, i32 0
  store i16 %44, ptr %45, align 2
  br label %46

46:                                               ; preds = %42, %28
  br label %47

47:                                               ; preds = %46, %12
  ret void
}

; Function Attrs: mustprogress nounwind uwtable
define linkonce_odr noundef float @_ZNK32pxrInternal_v0_24__pxrReserved__8pxr_half4halfcvfEv(ptr noundef nonnull align 2 dereferenceable(2) %0) #2 comdat align 2 {
  %2 = alloca ptr, align 8
  store ptr %0, ptr %2, align 8
  %3 = load ptr, ptr %2, align 8
  %4 = getelementptr inbounds nuw %"class.pxrInternal_v0_24__pxrReserved__::pxr_half::half", ptr %3, i32 0, i32 0
  %5 = load i16, ptr %4, align 2
  %6 = zext i16 %5 to i64
  %7 = getelementptr inbounds [65536 x %"union.pxrInternal_v0_24__pxrReserved__::pxr_half::half::uif"], ptr @_ZN32pxrInternal_v0_24__pxrReserved__8pxr_half4half8_toFloatE, i64 0, i64 %6
  %8 = load float, ptr %7, align 4
  ret float %8
}

; Function Attrs: mustprogress uwtable
define linkonce_odr noundef nonnull align 2 dereferenceable(2) ptr @_ZN32pxrInternal_v0_24__pxrReserved__8pxr_half4halfpLES1_(ptr noundef nonnull align 2 dereferenceable(2) %0, i16 %1) #0 comdat align 2 {
  %3 = alloca %"class.pxrInternal_v0_24__pxrReserved__::pxr_half::half", align 2
  %4 = alloca ptr, align 8
  %5 = alloca %"class.pxrInternal_v0_24__pxrReserved__::pxr_half::half", align 2
  %6 = getelementptr inbounds nuw %"class.pxrInternal_v0_24__pxrReserved__::pxr_half::half", ptr %3, i32 0, i32 0
  store i16 %1, ptr %6, align 2
  store ptr %0, ptr %4, align 8
  %7 = load ptr, ptr %4, align 8
  %8 = call noundef float @_ZNK32pxrInternal_v0_24__pxrReserved__8pxr_half4halfcvfEv(ptr noundef nonnull align 2 dereferenceable(2) %7)
  %9 = call noundef float @_ZNK32pxrInternal_v0_24__pxrReserved__8pxr_half4halfcvfEv(ptr noundef nonnull align 2 dereferenceable(2) %3)
  %10 = fadd float %8, %9
  call void @_ZN32pxrInternal_v0_24__pxrReserved__8pxr_half4halfC2Ef(ptr noundef nonnull align 2 dereferenceable(2) %5, float noundef %10)
  call void @llvm.memcpy.p0.p0.i64(ptr align 2 %7, ptr align 2 %5, i64 2, i1 false)
  ret ptr %7
}

; Function Attrs: mustprogress uwtable
define linkonce_odr noundef nonnull align 2 dereferenceable(8) ptr @_ZN32pxrInternal_v0_24__pxrReserved__7GfQuathpLERKS0_(ptr noundef nonnull align 2 dereferenceable(8) %0, ptr noundef nonnull align 2 dereferenceable(8) %1) #0 comdat align 2 {
  %3 = alloca ptr, align 8
  %4 = alloca ptr, align 8
  %5 = alloca %"class.pxrInternal_v0_24__pxrReserved__::pxr_half::half", align 2
  store ptr %0, ptr %3, align 8
  store ptr %1, ptr %4, align 8
  %6 = load ptr, ptr %3, align 8
  %7 = load ptr, ptr %4, align 8
  %8 = getelementptr inbounds nuw %"class.pxrInternal_v0_24__pxrReserved__::GfQuath", ptr %7, i32 0, i32 1
  call void @llvm.memcpy.p0.p0.i64(ptr align 2 %5, ptr align 2 %8, i64 2, i1 false)
  %9 = getelementptr inbounds nuw %"class.pxrInternal_v0_24__pxrReserved__::GfQuath", ptr %6, i32 0, i32 1
  %10 = getelementptr inbounds nuw %"class.pxrInternal_v0_24__pxrReserved__::pxr_half::half", ptr %5, i32 0, i32 0
  %11 = load i16, ptr %10, align 2
  %12 = call noundef nonnull align 2 dereferenceable(2) ptr @_ZN32pxrInternal_v0_24__pxrReserved__8pxr_half4halfpLES1_(ptr noundef nonnull align 2 dereferenceable(2) %9, i16 %11)
  %13 = load ptr, ptr %4, align 8
  %14 = getelementptr inbounds nuw %"class.pxrInternal_v0_24__pxrReserved__::GfQuath", ptr %13, i32 0, i32 0
  %15 = getelementptr inbounds nuw %"class.pxrInternal_v0_24__pxrReserved__::GfQuath", ptr %6, i32 0, i32 0
  %16 = call noundef nonnull align 2 dereferenceable(6) ptr @_ZN32pxrInternal_v0_24__pxrReserved__7GfVec3hpLERKS0_(ptr noundef nonnull align 2 dereferenceable(6) %15, ptr noundef nonnull align 2 dereferenceable(6) %14)
  ret ptr %6
}

; Function Attrs: mustprogress nounwind uwtable
define linkonce_odr void @_ZN32pxrInternal_v0_24__pxrReserved__11GfDualQuath7SetDualERKNS_7GfQuathE(ptr noundef nonnull align 2 dereferenceable(16) %0, ptr noundef nonnull align 2 dereferenceable(8) %1) #2 comdat align 2 {
  %3 = alloca ptr, align 8
  %4 = alloca ptr, align 8
  store ptr %0, ptr %3, align 8
  store ptr %1, ptr %4, align 8
  %5 = load ptr, ptr %3, align 8
  %6 = load ptr, ptr %4, align 8
  %7 = getelementptr inbounds nuw %"class.pxrInternal_v0_24__pxrReserved__::GfDualQuath", ptr %5, i32 0, i32 1
  call void @llvm.memcpy.p0.p0.i64(ptr align 2 %7, ptr align 2 %6, i64 8, i1 false)
  ret void
}

; Function Attrs: mustprogress nounwind uwtable
define linkonce_odr void @_ZN32pxrInternal_v0_24__pxrReserved__11GfDualQuath7SetRealERKNS_7GfQuathE(ptr noundef nonnull align 2 dereferenceable(16) %0, ptr noundef nonnull align 2 dereferenceable(8) %1) #2 comdat align 2 {
  %3 = alloca ptr, align 8
  %4 = alloca ptr, align 8
  store ptr %0, ptr %3, align 8
  store ptr %1, ptr %4, align 8
  %5 = load ptr, ptr %3, align 8
  %6 = load ptr, ptr %4, align 8
  %7 = getelementptr inbounds nuw %"class.pxrInternal_v0_24__pxrReserved__::GfDualQuath", ptr %5, i32 0, i32 0
  call void @llvm.memcpy.p0.p0.i64(ptr align 2 %7, ptr align 2 %6, i64 8, i1 false)
  ret void
}

; Function Attrs: mustprogress uwtable
define linkonce_odr i64 @_ZN32pxrInternal_v0_24__pxrReserved__plERKNS_7GfQuathES2_(ptr noundef nonnull align 2 dereferenceable(8) %0, ptr noundef nonnull align 2 dereferenceable(8) %1) #0 comdat {
  %3 = alloca %"class.pxrInternal_v0_24__pxrReserved__::GfQuath", align 2
  %4 = alloca ptr, align 8
  %5 = alloca ptr, align 8
  %6 = alloca %"class.pxrInternal_v0_24__pxrReserved__::GfQuath", align 2
  store ptr %0, ptr %4, align 8
  store ptr %1, ptr %5, align 8
  %7 = load ptr, ptr %5, align 8
  %8 = load ptr, ptr %4, align 8
  call void @llvm.memcpy.p0.p0.i64(ptr align 2 %6, ptr align 2 %8, i64 8, i1 false)
  %9 = call noundef nonnull align 2 dereferenceable(8) ptr @_ZN32pxrInternal_v0_24__pxrReserved__7GfQuathpLERKS0_(ptr noundef nonnull align 2 dereferenceable(8) %6, ptr noundef nonnull align 2 dereferenceable(8) %7)
  call void @llvm.memcpy.p0.p0.i64(ptr align 2 %3, ptr align 2 %9, i64 8, i1 false)
  %10 = load i64, ptr %3, align 2
  ret i64 %10
}

; Function Attrs: mustprogress nounwind uwtable
define linkonce_odr noundef nonnull align 2 dereferenceable(8) ptr @_ZNK32pxrInternal_v0_24__pxrReserved__11GfDualQuath7GetDualEv(ptr noundef nonnull align 2 dereferenceable(16) %0) #2 comdat align 2 {
  %2 = alloca ptr, align 8
  store ptr %0, ptr %2, align 8
  %3 = load ptr, ptr %2, align 8
  %4 = getelementptr inbounds nuw %"class.pxrInternal_v0_24__pxrReserved__::GfDualQuath", ptr %3, i32 0, i32 1
  ret ptr %4
}

; Function Attrs: mustprogress uwtable
define linkonce_odr i64 @_ZN32pxrInternal_v0_24__pxrReserved__mlERKNS_7GfQuathES2_(ptr noundef nonnull align 2 dereferenceable(8) %0, ptr noundef nonnull align 2 dereferenceable(8) %1) #0 comdat {
  %3 = alloca %"class.pxrInternal_v0_24__pxrReserved__::GfQuath", align 2
  %4 = alloca ptr, align 8
  %5 = alloca ptr, align 8
  %6 = alloca %"class.pxrInternal_v0_24__pxrReserved__::GfQuath", align 2
  store ptr %0, ptr %4, align 8
  store ptr %1, ptr %5, align 8
  %7 = load ptr, ptr %5, align 8
  %8 = load ptr, ptr %4, align 8
  call void @llvm.memcpy.p0.p0.i64(ptr align 2 %6, ptr align 2 %8, i64 8, i1 false)
  %9 = call noundef nonnull align 2 dereferenceable(8) ptr @_ZN32pxrInternal_v0_24__pxrReserved__7GfQuathmLERKS0_(ptr noundef nonnull align 2 dereferenceable(8) %6, ptr noundef nonnull align 2 dereferenceable(8) %7)
  call void @llvm.memcpy.p0.p0.i64(ptr align 2 %3, ptr align 2 %9, i64 8, i1 false)
  %10 = load i64, ptr %3, align 2
  ret i64 %10
}

; Function Attrs: mustprogress nounwind uwtable
define linkonce_odr noundef nonnull align 2 dereferenceable(8) ptr @_ZNK32pxrInternal_v0_24__pxrReserved__11GfDualQuath7GetRealEv(ptr noundef nonnull align 2 dereferenceable(16) %0) #2 comdat align 2 {
  %2 = alloca ptr, align 8
  store ptr %0, ptr %2, align 8
  %3 = load ptr, ptr %2, align 8
  %4 = getelementptr inbounds nuw %"class.pxrInternal_v0_24__pxrReserved__::GfDualQuath", ptr %3, i32 0, i32 0
  ret ptr %4
}

; Function Attrs: mustprogress uwtable
define noundef nonnull align 2 dereferenceable(16) ptr @_ZN32pxrInternal_v0_24__pxrReserved__11GfDualQuathmLERKS0_(ptr noundef nonnull align 2 dereferenceable(16) %0, ptr noundef nonnull align 2 dereferenceable(16) %1) #0 align 2 {
  %3 = alloca ptr, align 8
  %4 = alloca ptr, align 8
  %5 = alloca %"class.pxrInternal_v0_24__pxrReserved__::GfQuath", align 2
  %6 = alloca %"class.pxrInternal_v0_24__pxrReserved__::GfQuath", align 2
  %7 = alloca %"class.pxrInternal_v0_24__pxrReserved__::GfQuath", align 2
  %8 = alloca %"class.pxrInternal_v0_24__pxrReserved__::GfQuath", align 2
  store ptr %0, ptr %3, align 8
  store ptr %1, ptr %4, align 8
  %9 = load ptr, ptr %3, align 8
  %10 = call noundef nonnull align 2 dereferenceable(8) ptr @_ZNK32pxrInternal_v0_24__pxrReserved__11GfDualQuath7GetRealEv(ptr noundef nonnull align 2 dereferenceable(16) %9)
  %11 = load ptr, ptr %4, align 8
  %12 = call noundef nonnull align 2 dereferenceable(8) ptr @_ZNK32pxrInternal_v0_24__pxrReserved__11GfDualQuath7GetRealEv(ptr noundef nonnull align 2 dereferenceable(16) %11)
  %13 = call i64 @_ZN32pxrInternal_v0_24__pxrReserved__mlERKNS_7GfQuathES2_(ptr noundef nonnull align 2 dereferenceable(8) %10, ptr noundef nonnull align 2 dereferenceable(8) %12)
  store i64 %13, ptr %5, align 2
  %14 = call noundef nonnull align 2 dereferenceable(8) ptr @_ZNK32pxrInternal_v0_24__pxrReserved__11GfDualQuath7GetRealEv(ptr noundef nonnull align 2 dereferenceable(16) %9)
  %15 = load ptr, ptr %4, align 8
  %16 = call noundef nonnull align 2 dereferenceable(8) ptr @_ZNK32pxrInternal_v0_24__pxrReserved__11GfDualQuath7GetDualEv(ptr noundef nonnull align 2 dereferenceable(16) %15)
  %17 = call i64 @_ZN32pxrInternal_v0_24__pxrReserved__mlERKNS_7GfQuathES2_(ptr noundef nonnull align 2 dereferenceable(8) %14, ptr noundef nonnull align 2 dereferenceable(8) %16)
  store i64 %17, ptr %7, align 2
  %18 = call noundef nonnull align 2 dereferenceable(8) ptr @_ZNK32pxrInternal_v0_24__pxrReserved__11GfDualQuath7GetDualEv(ptr noundef nonnull align 2 dereferenceable(16) %9)
  %19 = load ptr, ptr %4, align 8
  %20 = call noundef nonnull align 2 dereferenceable(8) ptr @_ZNK32pxrInternal_v0_24__pxrReserved__11GfDualQuath7GetRealEv(ptr noundef nonnull align 2 dereferenceable(16) %19)
  %21 = call i64 @_ZN32pxrInternal_v0_24__pxrReserved__mlERKNS_7GfQuathES2_(ptr noundef nonnull align 2 dereferenceable(8) %18, ptr noundef nonnull align 2 dereferenceable(8) %20)
  store i64 %21, ptr %8, align 2
  %22 = call i64 @_ZN32pxrInternal_v0_24__pxrReserved__plERKNS_7GfQuathES2_(ptr noundef nonnull align 2 dereferenceable(8) %7, ptr noundef nonnull align 2 dereferenceable(8) %8)
  store i64 %22, ptr %6, align 2
  call void @_ZN32pxrInternal_v0_24__pxrReserved__11GfDualQuath7SetRealERKNS_7GfQuathE(ptr noundef nonnull align 2 dereferenceable(16) %9, ptr noundef nonnull align 2 dereferenceable(8) %5)
  call void @_ZN32pxrInternal_v0_24__pxrReserved__11GfDualQuath7SetDualERKNS_7GfQuathE(ptr noundef nonnull align 2 dereferenceable(16) %9, ptr noundef nonnull align 2 dereferenceable(8) %6)
  ret ptr %9
}