; Function Attrs: mustprogress uwtable
define noundef nonnull align 2 dereferenceable(16) ptr @_ZN32pxrInternal_v0_24__pxrReserved__11GfDualQuathmLERKS0_(ptr noundef nonnull returned align 2 dereferenceable(16) %0, ptr noundef nonnull align 2 dereferenceable(16) %1) local_unnamed_addr #0 align 2 {
  %3 = alloca %"class.pxrInternal_v0_24__pxrReserved__::GfQuath", align 8
  %4 = alloca %"class.pxrInternal_v0_24__pxrReserved__::GfQuath", align 8
  %5 = alloca %"class.pxrInternal_v0_24__pxrReserved__::GfQuath", align 8
  %6 = alloca %"class.pxrInternal_v0_24__pxrReserved__::GfQuath", align 8
  %7 = alloca %"class.pxrInternal_v0_24__pxrReserved__::GfQuath", align 8
  call void @llvm.lifetime.start.p0(i64 8, ptr nonnull %6)
  %8 = load i64, ptr %0, align 2
  store i64 %8, ptr %6, align 8
  %9 = call noundef nonnull align 2 dereferenceable(8) ptr @_ZN32pxrInternal_v0_24__pxrReserved__7GfQuathmLERKS0_(ptr noundef nonnull align 2 dereferenceable(8) %6, ptr noundef nonnull align 2 dereferenceable(8) %1)
  %.sroa.0.0.copyload.i = load i64, ptr %9, align 2
  call void @llvm.lifetime.end.p0(i64 8, ptr nonnull %6)
  %10 = getelementptr inbounds nuw i8, ptr %1, i64 8
  call void @llvm.lifetime.start.p0(i64 8, ptr nonnull %5)
  %11 = load i64, ptr %0, align 2
  store i64 %11, ptr %5, align 8
  %12 = call noundef nonnull align 2 dereferenceable(8) ptr @_ZN32pxrInternal_v0_24__pxrReserved__7GfQuathmLERKS0_(ptr noundef nonnull align 2 dereferenceable(8) %5, ptr noundef nonnull align 2 dereferenceable(8) %10)
  %.sroa.0.0.copyload.i4 = load i64, ptr %12, align 2
  call void @llvm.lifetime.end.p0(i64 8, ptr nonnull %5)
  %13 = getelementptr inbounds nuw i8, ptr %0, i64 8
  call void @llvm.lifetime.start.p0(i64 8, ptr nonnull %4)
  %14 = load i64, ptr %13, align 2
  store i64 %14, ptr %4, align 8
  %15 = call noundef nonnull align 2 dereferenceable(8) ptr @_ZN32pxrInternal_v0_24__pxrReserved__7GfQuathmLERKS0_(ptr noundef nonnull align 2 dereferenceable(8) %4, ptr noundef nonnull align 2 dereferenceable(8) %1)
  %.sroa.0.0.copyload.i5 = load i64, ptr %15, align 2
  call void @llvm.lifetime.end.p0(i64 8, ptr nonnull %4)
  store i64 %.sroa.0.0.copyload.i5, ptr %7, align 8
  call void @llvm.lifetime.start.p0(i64 8, ptr nonnull %3)
  store i64 %.sroa.0.0.copyload.i4, ptr %3, align 8
  %16 = lshr i64 %.sroa.0.0.copyload.i5, 48
  %17 = lshr i64 %.sroa.0.0.copyload.i4, 48
  %18 = getelementptr inbounds [65536 x %"union.pxrInternal_v0_24__pxrReserved__::pxr_half::half::uif"], ptr @_ZN32pxrInternal_v0_24__pxrReserved__8pxr_half4half8_toFloatE, i64 0, i64 %17
  %19 = load float, ptr %18, align 4
  %20 = getelementptr inbounds [65536 x %"union.pxrInternal_v0_24__pxrReserved__::pxr_half::half::uif"], ptr @_ZN32pxrInternal_v0_24__pxrReserved__8pxr_half4half8_toFloatE, i64 0, i64 %16
  %21 = load float, ptr %20, align 4
  %22 = fadd float %19, %21
  %23 = bitcast float %22 to i32
  %24 = fcmp oeq float %22, 0.000000e+00
  br i1 %24, label %25, label %28

25:                                               ; preds = %2
  %26 = lshr exact i32 %23, 16
  %27 = trunc nuw i32 %26 to i16
  br label %_ZN32pxrInternal_v0_24__pxrReserved__plERKNS_7GfQuathES2_.exit

28:                                               ; preds = %2
  %29 = lshr i32 %23, 23
  %30 = zext nneg i32 %29 to i64
  %31 = getelementptr inbounds [512 x i16], ptr @_ZN32pxrInternal_v0_24__pxrReserved__8pxr_half4half5_eLutE, i64 0, i64 %30
  %32 = load i16, ptr %31, align 2
  %.not.i.i.i.i = icmp eq i16 %32, 0
  br i1 %.not.i.i.i.i, label %42, label %33

33:                                               ; preds = %28
  %34 = and i32 %23, 8388607
  %35 = add nuw nsw i32 %34, 4095
  %36 = lshr i32 %23, 13
  %37 = and i32 %36, 1
  %38 = add nuw nsw i32 %35, %37
  %39 = lshr i32 %38, 13
  %40 = trunc nuw nsw i32 %39 to i16
  %41 = add i16 %32, %40
  br label %_ZN32pxrInternal_v0_24__pxrReserved__plERKNS_7GfQuathES2_.exit

42:                                               ; preds = %28
  %43 = call noundef signext i16 @_ZN32pxrInternal_v0_24__pxrReserved__8pxr_half4half7convertEi(i32 noundef %23)
  br label %_ZN32pxrInternal_v0_24__pxrReserved__plERKNS_7GfQuathES2_.exit

_ZN32pxrInternal_v0_24__pxrReserved__plERKNS_7GfQuathES2_.exit: ; preds = %25, %33, %42
  %.sink.i.i.i.i = phi i16 [ %41, %33 ], [ %43, %42 ], [ %27, %25 ]
  %44 = getelementptr inbounds nuw i8, ptr %3, i64 6
  store i16 %.sink.i.i.i.i, ptr %44, align 2
  %45 = call noundef nonnull align 2 dereferenceable(6) ptr @_ZN32pxrInternal_v0_24__pxrReserved__7GfVec3hpLERKS0_(ptr noundef nonnull align 2 dereferenceable(6) %3, ptr noundef nonnull align 2 dereferenceable(6) %7)
  %.sroa.0.0.copyload.i6 = load i64, ptr %3, align 8
  call void @llvm.lifetime.end.p0(i64 8, ptr nonnull %3)
  store i64 %.sroa.0.0.copyload.i, ptr %0, align 2
  store i64 %.sroa.0.0.copyload.i6, ptr %13, align 2
  ret ptr %0
}